target datalayout = "e-m:e-p270:32:32-p271:32:32-p272:64:64-i64:64-i128:128-f80:128-n8:16:32:64-S128"
target triple = "x86_64-pc-linux-gnu"

@_ZN5IpoptL25user_ma97_default_controlE = internal global ptr null, align 8
@_ZN5IpoptL17user_ma97_analyseE = internal global ptr null, align 8
@_ZN5IpoptL16user_ma97_factorE = internal global ptr null, align 8
@_ZN5IpoptL22user_ma97_factor_solveE = internal global ptr null, align 8
@_ZN5IpoptL15user_ma97_solveE = internal global ptr null, align 8
@_ZN5IpoptL18user_ma97_finaliseE = internal global ptr null, align 8
@_ZN5IpoptL20user_ma97_free_akeepE = internal global ptr null, align 8

; Function Attrs: mustprogress nounwind uwtable
define void @_ZN5Ipopt19Ma97SolverInterface12SetFunctionsEPFvP14ma97_control_dEPFviiPKiS6_PdPPvPKS1_P11ma97_info_dPiEPFviS6_S6_PKdS9_S9_SB_SD_S7_EPFviS6_S6_SI_iS7_iS9_S9_SB_SD_S7_EPFviiS7_iS9_S9_SB_SD_EPFvS9_S9_EPFvS9_E(ptr noundef %0, ptr noundef %1, ptr noundef %2, ptr noundef %3, ptr noundef %4, ptr noundef %5, ptr noundef %6) #4 align 2 {
  %8 = alloca ptr, align 8
  %9 = alloca ptr, align 8
  %10 = alloca ptr, align 8
  %11 = alloca ptr, align 8
  %12 = alloca ptr, align 8
  %13 = alloca ptr, align 8
  %14 = alloca ptr, align 8
  store ptr %0, ptr %8, align 8, !tbaa !46
  store ptr %1, ptr %9, align 8, !tbaa !46
  store ptr %2, ptr %10, align 8, !tbaa !46
  store ptr %3, ptr %11, align 8, !tbaa !46
  store ptr %4, ptr %12, align 8, !tbaa !46
  store ptr %5, ptr %13, align 8, !tbaa !46
  store ptr %6, ptr %14, align 8, !tbaa !46
  %15 = load ptr, ptr %8, align 8, !tbaa !46
  store ptr %15, ptr @_ZN5IpoptL25user_ma97_default_controlE, align 8, !tbaa !46
  %16 = load ptr, ptr %9, align 8, !tbaa !46
  store ptr %16, ptr @_ZN5IpoptL17user_ma97_analyseE, align 8, !tbaa !46
  %17 = load ptr, ptr %10, align 8, !tbaa !46
  store ptr %17, ptr @_ZN5IpoptL16user_ma97_factorE, align 8, !tbaa !46
  %18 = load ptr, ptr %11, align 8, !tbaa !46
  store ptr %18, ptr @_ZN5IpoptL22user_ma97_factor_solveE, align 8, !tbaa !46
  %19 = load ptr, ptr %12, align 8, !tbaa !46
  store ptr %19, ptr @_ZN5IpoptL15user_ma97_solveE, align 8, !tbaa !46
  %20 = load ptr, ptr %13, align 8, !tbaa !46
  store ptr %20, ptr @_ZN5IpoptL18user_ma97_finaliseE, align 8, !tbaa !46
  %21 = load ptr, ptr %14, align 8, !tbaa !46
  store ptr %21, ptr @_ZN5IpoptL20user_ma97_free_akeepE, align 8, !tbaa !46
  ret void
}