; Function Attrs: mustprogress nofree norecurse nosync nounwind willreturn memory(write, argmem: none, inaccessiblemem: none) uwtable
define void @_ZN5Ipopt19Ma97SolverInterface12SetFunctionsEPFvP14ma97_control_dEPFviiPKiS6_PdPPvPKS1_P11ma97_info_dPiEPFviS6_S6_PKdS9_S9_SB_SD_S7_EPFviS6_S6_SI_iS7_iS9_S9_SB_SD_S7_EPFviiS7_iS9_S9_SB_SD_EPFvS9_S9_EPFvS9_E(ptr noundef %0, ptr noundef %1, ptr noundef %2, ptr noundef %3, ptr noundef %4, ptr noundef %5, ptr noundef %6) local_unnamed_addr #9 align 2 {
  store ptr %0, ptr @_ZN5IpoptL25user_ma97_default_controlE, align 8, !tbaa !48
  store ptr %1, ptr @_ZN5IpoptL17user_ma97_analyseE, align 8, !tbaa !48
  store ptr %2, ptr @_ZN5IpoptL16user_ma97_factorE, align 8, !tbaa !48
  store ptr %3, ptr @_ZN5IpoptL22user_ma97_factor_solveE, align 8, !tbaa !48
  store ptr %4, ptr @_ZN5IpoptL15user_ma97_solveE, align 8, !tbaa !48
  store ptr %5, ptr @_ZN5IpoptL18user_ma97_finaliseE, align 8, !tbaa !48
  store ptr %6, ptr @_ZN5IpoptL20user_ma97_free_akeepE, align 8, !tbaa !48
  ret void
}